target datalayout = "e-m:e-p270:32:32-p271:32:32-p272:64:64-i64:64-i128:128-f80:128-n8:16:32:64-S128"
target triple = "x86_64-pc-linux-gnu"

%class.ForeignLambdaTerms = type <{ i32, [4 x i8], ptr, %"class.std::vector", %"class.std::vector.0", i8, [7 x i8] }>
%"class.std::vector" = type { %"struct.std::_Vector_base" }
%"struct.std::_Vector_base" = type { %"struct.std::_Vector_base<double, std::allocator<double>>::_Vector_impl" }
%"struct.std::_Vector_base<double, std::allocator<double>>::_Vector_impl" = type { %"struct.std::_Vector_base<double, std::allocator<double>>::_Vector_impl_data" }
%"struct.std::_Vector_base<double, std::allocator<double>>::_Vector_impl_data" = type { ptr, ptr, ptr }
%"class.std::vector.0" = type { %"struct.std::_Vector_base.1" }
%"struct.std::_Vector_base.1" = type { %"struct.std::_Vector_base<gmx::EnumerationArray<FreeEnergyPerturbationCouplingType, double>, std::allocator<gmx::EnumerationArray<FreeEnergyPerturbationCouplingType, double>>>::_Vector_impl" }
%"struct.std::_Vector_base<gmx::EnumerationArray<FreeEnergyPerturbationCouplingType, double>, std::allocator<gmx::EnumerationArray<FreeEnergyPerturbationCouplingType, double>>>::_Vector_impl" = type { %"struct.std::_Vector_base<gmx::EnumerationArray<FreeEnergyPerturbationCouplingType, double>, std::allocator<gmx::EnumerationArray<FreeEnergyPerturbationCouplingType, double>>>::_Vector_impl_data" }
%"struct.std::_Vector_base<gmx::EnumerationArray<FreeEnergyPerturbationCouplingType, double>, std::allocator<gmx::EnumerationArray<FreeEnergyPerturbationCouplingType, double>>>::_Vector_impl_data" = type { ptr, ptr, ptr }
%"struct.gmx::EnumerationArray" = type { [7 x %"class.std::vector"] }
%"struct.gmx::EnumerationArray.5" = type { [7 x double] }
%struct.gmx_enerdata_t = type { %"struct.std::array", %struct.gmx_grppairener_t, %"struct.gmx::EnumerationArray.5", %"struct.gmx::EnumerationArray.5", %class.ForeignLambdaTerms }
%"struct.std::array" = type { [94 x float] }
%struct.gmx_grppairener_t = type { i32, %"struct.gmx::EnumerationArray.13" }
%"struct.gmx::EnumerationArray.13" = type { [5 x %"class.std::vector.14"] }
%"class.std::vector.14" = type { %"struct.std::_Vector_base.15" }
%"struct.std::_Vector_base.15" = type { %"struct.std::_Vector_base<float, std::allocator<float>>::_Vector_impl" }
%"struct.std::_Vector_base<float, std::allocator<float>>::_Vector_impl" = type { %"struct.std::_Vector_base<float, std::allocator<float>>::_Vector_impl_data" }
%"struct.std::_Vector_base<float, std::allocator<float>>::_Vector_impl_data" = type { ptr, ptr, ptr }
%"class.gmx::ArrayRef.19" = type { %"struct.gmx::ArrayRefIter.20", %"struct.gmx::ArrayRefIter.20" }
%"struct.gmx::ArrayRefIter.20" = type { ptr }
%struct.t_lambda = type { i32, double, i32, double, i32, i32, %"struct.gmx::EnumerationArray", i32, i32, i32, float, i32, float, float, float, i8, i32, float, float, float, %"struct.gmx::EnumerationArray.22", i32, i32, i32, double }
%"struct.gmx::EnumerationArray.22" = type { [7 x i8] }

; Function Attrs: mustprogress nounwind uwtable
define linkonce_odr noundef i64 @_ZNK3gmx12ArrayRefIterIKfEmiES2_(ptr noundef nonnull align 8 dereferenceable(8) %0, ptr %1) #1 comdat align 2 {
  %3 = alloca %"struct.gmx::ArrayRefIter.20", align 8
  %4 = alloca ptr, align 8
  %5 = getelementptr inbounds %"struct.gmx::ArrayRefIter.20", ptr %3, i32 0, i32 0
  store ptr %1, ptr %5, align 8
  store ptr %0, ptr %4, align 8
  %6 = load ptr, ptr %4, align 8
  %7 = getelementptr inbounds %"struct.gmx::ArrayRefIter.20", ptr %6, i32 0, i32 0
  %8 = load ptr, ptr %7, align 8
  %9 = getelementptr inbounds %"struct.gmx::ArrayRefIter.20", ptr %3, i32 0, i32 0
  %10 = load ptr, ptr %9, align 8
  %11 = ptrtoint ptr %8 to i64
  %12 = ptrtoint ptr %10 to i64
  %13 = sub i64 %11, %12
  %14 = sdiv exact i64 %13, 4
  ret i64 %14
}

; Function Attrs: mustprogress nounwind uwtable
define linkonce_odr noundef ptr @_ZNK3gmx12ArrayRefIterIKfE4dataEv(ptr noundef nonnull align 8 dereferenceable(8) %0) #1 comdat align 2 {
  %2 = alloca ptr, align 8
  store ptr %0, ptr %2, align 8
  %3 = load ptr, ptr %2, align 8
  %4 = getelementptr inbounds %"struct.gmx::ArrayRefIter.20", ptr %3, i32 0, i32 0
  %5 = load ptr, ptr %4, align 8
  ret ptr %5
}

; Function Attrs: mustprogress nounwind uwtable
define linkonce_odr noundef ptr @_ZNSt14__array_traitsIfLm94EE6_S_ptrERA94_Kf(ptr noundef nonnull align 4 dereferenceable(376) %0) #1 comdat align 2 {
  %2 = alloca ptr, align 8
  store ptr %0, ptr %2, align 8
  %3 = load ptr, ptr %2, align 8
  %4 = getelementptr inbounds [94 x float], ptr %3, i64 0, i64 0
  ret ptr %4
}

; Function Attrs: mustprogress nounwind uwtable
define linkonce_odr noundef i64 @_ZNK3gmx8ArrayRefIKfE4sizeEv(ptr noundef nonnull align 8 dereferenceable(16) %0) #1 comdat align 2 {
  %2 = alloca ptr, align 8
  %3 = alloca %"struct.gmx::ArrayRefIter.20", align 8
  store ptr %0, ptr %2, align 8
  %4 = load ptr, ptr %2, align 8
  %5 = getelementptr inbounds %"class.gmx::ArrayRef.19", ptr %4, i32 0, i32 1
  %6 = getelementptr inbounds %"class.gmx::ArrayRef.19", ptr %4, i32 0, i32 0
  call void @llvm.memcpy.p0.p0.i64(ptr align 8 %3, ptr align 8 %6, i64 8, i1 false)
  %7 = getelementptr inbounds %"struct.gmx::ArrayRefIter.20", ptr %3, i32 0, i32 0
  %8 = load ptr, ptr %7, align 8
  %9 = call noundef i64 @_ZNK3gmx12ArrayRefIterIKfEmiES2_(ptr noundef nonnull align 8 dereferenceable(8) %5, ptr %8) #12
  ret i64 %9
}

; Function Attrs: mustprogress nounwind uwtable
define linkonce_odr noundef ptr @_ZNK3gmx8ArrayRefIKfE4dataEv(ptr noundef nonnull align 8 dereferenceable(16) %0) #1 comdat align 2 {
  %2 = alloca ptr, align 8
  store ptr %0, ptr %2, align 8
  %3 = load ptr, ptr %2, align 8
  %4 = getelementptr inbounds %"class.gmx::ArrayRef.19", ptr %3, i32 0, i32 0
  %5 = call noundef ptr @_ZNK3gmx12ArrayRefIterIKfE4dataEv(ptr noundef nonnull align 8 dereferenceable(8) %4) #12
  ret ptr %5
}

; Function Attrs: mustprogress nounwind willreturn memory(none) uwtable
define linkonce_odr noundef i64 @_ZNKSt5arrayIfLm94EE4sizeEv(ptr noundef nonnull align 4 dereferenceable(376) %0) #10 comdat align 2 {
  %2 = alloca ptr, align 8
  store ptr %0, ptr %2, align 8
  ret i64 94
}

; Function Attrs: mustprogress nounwind uwtable
define linkonce_odr void @_ZN3gmx12ArrayRefIterIKfEC2EPS1_(ptr noundef nonnull align 8 dereferenceable(8) %0, ptr noundef %1) unnamed_addr #1 comdat align 2 {
  %3 = alloca ptr, align 8
  %4 = alloca ptr, align 8
  store ptr %0, ptr %3, align 8
  store ptr %1, ptr %4, align 8
  %5 = load ptr, ptr %3, align 8
  %6 = getelementptr inbounds %"struct.gmx::ArrayRefIter.20", ptr %5, i32 0, i32 0
  %7 = load ptr, ptr %4, align 8
  store ptr %7, ptr %6, align 8
  ret void
}

; Function Attrs: mustprogress nounwind willreturn memory(none) uwtable
define linkonce_odr noundef ptr @_ZNSt5arrayIfLm94EE4dataEv(ptr noundef nonnull align 4 dereferenceable(376) %0) #10 comdat align 2 {
  %2 = alloca ptr, align 8
  store ptr %0, ptr %2, align 8
  %3 = load ptr, ptr %2, align 8
  %4 = getelementptr inbounds %"struct.std::array", ptr %3, i32 0, i32 0
  %5 = call noundef ptr @_ZNSt14__array_traitsIfLm94EE6_S_ptrERA94_Kf(ptr noundef nonnull align 4 dereferenceable(376) %4) #12
  ret ptr %5
}

; Function Attrs: mustprogress nounwind uwtable
define linkonce_odr noundef nonnull align 4 dereferenceable(4) ptr @_ZNSt14__array_traitsIfLm94EE6_S_refERA94_Kfm(ptr noundef nonnull align 4 dereferenceable(376) %0, i64 noundef %1) #1 comdat align 2 {
  %3 = alloca ptr, align 8
  %4 = alloca i64, align 8
  store ptr %0, ptr %3, align 8
  store i64 %1, ptr %4, align 8
  %5 = load ptr, ptr %3, align 8
  %6 = load i64, ptr %4, align 8
  %7 = getelementptr inbounds [94 x float], ptr %5, i64 0, i64 %6
  ret ptr %7
}

; Function Attrs: mustprogress uwtable
define linkonce_odr void @_ZN3gmx8ArrayRefIKfEC2IRS2_vEEOT_(ptr noundef nonnull align 8 dereferenceable(16) %0, ptr noundef nonnull align 8 dereferenceable(16) %1) unnamed_addr #0 comdat align 2 {
  %3 = alloca ptr, align 8
  %4 = alloca ptr, align 8
  store ptr %0, ptr %3, align 8
  store ptr %1, ptr %4, align 8
  %5 = load ptr, ptr %3, align 8
  %6 = getelementptr inbounds %"class.gmx::ArrayRef.19", ptr %5, i32 0, i32 0
  %7 = load ptr, ptr %4, align 8
  %8 = call noundef ptr @_ZNK3gmx8ArrayRefIKfE4dataEv(ptr noundef nonnull align 8 dereferenceable(16) %7)
  call void @_ZN3gmx12ArrayRefIterIKfEC2EPS1_(ptr noundef nonnull align 8 dereferenceable(8) %6, ptr noundef %8) #12
  %9 = getelementptr inbounds %"class.gmx::ArrayRef.19", ptr %5, i32 0, i32 1
  %10 = load ptr, ptr %4, align 8
  %11 = call noundef ptr @_ZNK3gmx8ArrayRefIKfE4dataEv(ptr noundef nonnull align 8 dereferenceable(16) %10)
  %12 = load ptr, ptr %4, align 8
  %13 = call noundef i64 @_ZNK3gmx8ArrayRefIKfE4sizeEv(ptr noundef nonnull align 8 dereferenceable(16) %12)
  %14 = getelementptr inbounds float, ptr %11, i64 %13
  call void @_ZN3gmx12ArrayRefIterIKfEC2EPS1_(ptr noundef nonnull align 8 dereferenceable(8) %9, ptr noundef %14) #12
  ret void
}

; Function Attrs: mustprogress nounwind uwtable
define linkonce_odr noundef nonnull align 8 dereferenceable(8) ptr @_ZN3gmx16EnumerationArrayI34FreeEnergyPerturbationCouplingTypedLS1_7EEixES1_(ptr noundef nonnull align 8 dereferenceable(56) %0, i32 noundef %1) #1 comdat align 2 {
  %3 = alloca ptr, align 8
  %4 = alloca i32, align 4
  store ptr %0, ptr %3, align 8
  store i32 %1, ptr %4, align 4
  %5 = load ptr, ptr %3, align 8
  %6 = getelementptr inbounds %"struct.gmx::EnumerationArray.5", ptr %5, i32 0, i32 0
  %7 = load i32, ptr %4, align 4
  %8 = sext i32 %7 to i64
  %9 = getelementptr inbounds [7 x double], ptr %6, i64 0, i64 %8
  ret ptr %9
}

; Function Attrs: mustprogress nounwind uwtable
define linkonce_odr void @_ZN3gmx8ArrayRefIKfEC2IRSt5arrayIfLm94EEvEEOT_(ptr noundef nonnull align 8 dereferenceable(16) %0, ptr noundef nonnull align 4 dereferenceable(376) %1) unnamed_addr #1 comdat align 2 {
  %3 = alloca ptr, align 8
  %4 = alloca ptr, align 8
  store ptr %0, ptr %3, align 8
  store ptr %1, ptr %4, align 8
  %5 = load ptr, ptr %3, align 8
  %6 = getelementptr inbounds %"class.gmx::ArrayRef.19", ptr %5, i32 0, i32 0
  %7 = load ptr, ptr %4, align 8
  %8 = call noundef ptr @_ZNSt5arrayIfLm94EE4dataEv(ptr noundef nonnull align 4 dereferenceable(376) %7) #17
  call void @_ZN3gmx12ArrayRefIterIKfEC2EPS1_(ptr noundef nonnull align 8 dereferenceable(8) %6, ptr noundef %8) #12
  %9 = getelementptr inbounds %"class.gmx::ArrayRef.19", ptr %5, i32 0, i32 1
  %10 = load ptr, ptr %4, align 8
  %11 = call noundef ptr @_ZNSt5arrayIfLm94EE4dataEv(ptr noundef nonnull align 4 dereferenceable(376) %10) #17
  %12 = load ptr, ptr %4, align 8
  %13 = call noundef i64 @_ZNKSt5arrayIfLm94EE4sizeEv(ptr noundef nonnull align 4 dereferenceable(376) %12) #17
  %14 = getelementptr inbounds float, ptr %11, i64 %13
  call void @_ZN3gmx12ArrayRefIterIKfEC2EPS1_(ptr noundef nonnull align 8 dereferenceable(8) %9, ptr noundef %14) #12
  ret void
}

; Function Attrs: mustprogress nounwind uwtable
define linkonce_odr noundef nonnull align 4 dereferenceable(4) ptr @_ZNSt5arrayIfLm94EEixEm(ptr noundef nonnull align 4 dereferenceable(376) %0, i64 noundef %1) #1 comdat align 2 {
  %3 = alloca ptr, align 8
  %4 = alloca i64, align 8
  store ptr %0, ptr %3, align 8
  store i64 %1, ptr %4, align 8
  %5 = load ptr, ptr %3, align 8
  %6 = getelementptr inbounds %"struct.std::array", ptr %5, i32 0, i32 0
  %7 = load i64, ptr %4, align 8
  %8 = call noundef nonnull align 4 dereferenceable(4) ptr @_ZNSt14__array_traitsIfLm94EE6_S_refERA94_Kfm(ptr noundef nonnull align 4 dereferenceable(376) %6, i64 noundef %7) #12
  ret ptr %8
}

; Function Attrs: mustprogress nounwind uwtable
define linkonce_odr noundef nonnull align 1 dereferenceable(1) ptr @_ZNK3gmx16EnumerationArrayI34FreeEnergyPerturbationCouplingTypebLS1_7EEixES1_(ptr noundef nonnull align 1 dereferenceable(7) %0, i32 noundef %1) #1 comdat align 2 {
  %3 = alloca ptr, align 8
  %4 = alloca i32, align 4
  store ptr %0, ptr %3, align 8
  store i32 %1, ptr %4, align 4
  %5 = load ptr, ptr %3, align 8
  %6 = getelementptr inbounds %"struct.gmx::EnumerationArray.22", ptr %5, i32 0, i32 0
  %7 = load i32, ptr %4, align 4
  %8 = sext i32 %7 to i64
  %9 = getelementptr inbounds [7 x i8], ptr %6, i64 0, i64 %8
  ret ptr %9
}

; Function Attrs: mustprogress uwtable
define void @_Z33accumulateKineticLambdaComponentsP14gmx_enerdata_tN3gmx8ArrayRefIKfEERK8t_lambda(ptr noundef %0, ptr %1, ptr %2, ptr noundef nonnull align 8 dereferenceable(288) %3) #0 {
  %5 = alloca %"class.gmx::ArrayRef.19", align 8
  %6 = alloca ptr, align 8
  %7 = alloca ptr, align 8
  %8 = alloca %"class.gmx::ArrayRef.19", align 8
  %9 = alloca %"class.gmx::ArrayRef.19", align 8
  %10 = getelementptr inbounds { ptr, ptr }, ptr %5, i32 0, i32 0
  store ptr %1, ptr %10, align 8
  %11 = getelementptr inbounds { ptr, ptr }, ptr %5, i32 0, i32 1
  store ptr %2, ptr %11, align 8
  store ptr %0, ptr %6, align 8
  store ptr %3, ptr %7, align 8
  %12 = load ptr, ptr %7, align 8
  %13 = getelementptr inbounds %struct.t_lambda, ptr %12, i32 0, i32 20
  %14 = call noundef nonnull align 1 dereferenceable(1) ptr @_ZNK3gmx16EnumerationArrayI34FreeEnergyPerturbationCouplingTypebLS1_7EEixES1_(ptr noundef nonnull align 1 dereferenceable(7) %13, i32 noundef 4)
  %15 = load i8, ptr %14, align 1
  %16 = trunc i8 %15 to i1
  br i1 %16, label %17, label %27

17:                                               ; preds = %4
  %18 = load ptr, ptr %6, align 8
  %19 = getelementptr inbounds %struct.gmx_enerdata_t, ptr %18, i32 0, i32 0
  %20 = call noundef nonnull align 4 dereferenceable(4) ptr @_ZNSt5arrayIfLm94EEixEm(ptr noundef nonnull align 4 dereferenceable(376) %19, i64 noundef 86) #12
  %21 = load float, ptr %20, align 4
  %22 = load ptr, ptr %6, align 8
  %23 = getelementptr inbounds %struct.gmx_enerdata_t, ptr %22, i32 0, i32 0
  %24 = call noundef nonnull align 4 dereferenceable(4) ptr @_ZNSt5arrayIfLm94EEixEm(ptr noundef nonnull align 4 dereferenceable(376) %23, i64 noundef 91) #12
  %25 = load float, ptr %24, align 4
  %26 = fadd float %25, %21
  store float %26, ptr %24, align 4
  br label %37

27:                                               ; preds = %4
  %28 = load ptr, ptr %6, align 8
  %29 = getelementptr inbounds %struct.gmx_enerdata_t, ptr %28, i32 0, i32 0
  %30 = call noundef nonnull align 4 dereferenceable(4) ptr @_ZNSt5arrayIfLm94EEixEm(ptr noundef nonnull align 4 dereferenceable(376) %29, i64 noundef 86) #12
  %31 = load float, ptr %30, align 4
  %32 = load ptr, ptr %6, align 8
  %33 = getelementptr inbounds %struct.gmx_enerdata_t, ptr %32, i32 0, i32 0
  %34 = call noundef nonnull align 4 dereferenceable(4) ptr @_ZNSt5arrayIfLm94EEixEm(ptr noundef nonnull align 4 dereferenceable(376) %33, i64 noundef 87) #12
  %35 = load float, ptr %34, align 4
  %36 = fadd float %35, %31
  store float %36, ptr %34, align 4
  br label %37

37:                                               ; preds = %27, %17
  %38 = load ptr, ptr %6, align 8
  %39 = load ptr, ptr %7, align 8
  call void @_ZL15set_dhdl_outputP14gmx_enerdata_t34FreeEnergyPerturbationCouplingTypeRK8t_lambda(ptr noundef %38, i32 noundef 1, ptr noundef nonnull align 8 dereferenceable(288) %39)
  %40 = load ptr, ptr %6, align 8
  %41 = getelementptr inbounds %struct.gmx_enerdata_t, ptr %40, i32 0, i32 4
  %42 = load ptr, ptr %6, align 8
  %43 = getelementptr inbounds %struct.gmx_enerdata_t, ptr %42, i32 0, i32 0
  call void @_ZN3gmx8ArrayRefIKfEC2IRSt5arrayIfLm94EEvEEOT_(ptr noundef nonnull align 8 dereferenceable(16) %8, ptr noundef nonnull align 4 dereferenceable(376) %43)
  %44 = load ptr, ptr %6, align 8
  %45 = getelementptr inbounds %struct.gmx_enerdata_t, ptr %44, i32 0, i32 2
  %46 = call noundef nonnull align 8 dereferenceable(8) ptr @_ZN3gmx16EnumerationArrayI34FreeEnergyPerturbationCouplingTypedLS1_7EEixES1_(ptr noundef nonnull align 8 dereferenceable(56) %45, i32 noundef 1)
  %47 = load double, ptr %46, align 8
  call void @_ZN3gmx8ArrayRefIKfEC2IRS2_vEEOT_(ptr noundef nonnull align 8 dereferenceable(16) %9, ptr noundef nonnull align 8 dereferenceable(16) %5)
  %48 = load ptr, ptr %7, align 8
  %49 = getelementptr inbounds { ptr, ptr }, ptr %8, i32 0, i32 0
  %50 = load ptr, ptr %49, align 8
  %51 = getelementptr inbounds { ptr, ptr }, ptr %8, i32 0, i32 1
  %52 = load ptr, ptr %51, align 8
  %53 = getelementptr inbounds { ptr, ptr }, ptr %9, i32 0, i32 0
  %54 = load ptr, ptr %53, align 8
  %55 = getelementptr inbounds { ptr, ptr }, ptr %9, i32 0, i32 1
  %56 = load ptr, ptr %55, align 8
  call void @_ZN18ForeignLambdaTerms28finalizeKineticContributionsEN3gmx8ArrayRefIKfEEdS3_RK8t_lambda(ptr noundef nonnull align 8 dereferenceable(65) %41, ptr %50, ptr %52, double noundef %47, ptr %54, ptr %56, ptr noundef nonnull align 8 dereferenceable(288) %48)
  %57 = load ptr, ptr %6, align 8
  %58 = getelementptr inbounds %struct.gmx_enerdata_t, ptr %57, i32 0, i32 0
  %59 = call noundef nonnull align 4 dereferenceable(4) ptr @_ZNSt5arrayIfLm94EEixEm(ptr noundef nonnull align 4 dereferenceable(376) %58, i64 noundef 86) #12
  store float 0.000000e+00, ptr %59, align 4
  ret void
}