; Function Attrs: mustprogress uwtable
define void @_Z33accumulateKineticLambdaComponentsP14gmx_enerdata_tN3gmx8ArrayRefIKfEERK8t_lambda(ptr nocapture noundef %0, ptr %1, ptr %2, ptr nocapture noundef nonnull readonly align 8 dereferenceable(288) %3) local_unnamed_addr #0 {
  %5 = getelementptr inbounds i8, ptr %3, i64 264
  %6 = load i8, ptr %5, align 8
  %7 = trunc i8 %6 to i1
  %8 = getelementptr inbounds i8, ptr %0, i64 344
  %9 = load float, ptr %8, align 4
  %. = select i1 %7, i64 364, i64 348
  %10 = getelementptr inbounds i8, ptr %0, i64 %.
  %11 = load float, ptr %10, align 4
  %12 = fadd float %9, %11
  store float %12, ptr %10, align 4
  tail call fastcc void @_ZL15set_dhdl_outputP14gmx_enerdata_t34FreeEnergyPerturbationCouplingTypeRK8t_lambda(ptr noundef nonnull %0, i32 noundef 1, ptr noundef nonnull align 8 dereferenceable(288) %3)
  %13 = getelementptr inbounds i8, ptr %0, i64 616
  %14 = getelementptr inbounds i8, ptr %0, i64 512
  %15 = load double, ptr %14, align 8
  tail call void @_ZN18ForeignLambdaTerms28finalizeKineticContributionsEN3gmx8ArrayRefIKfEEdS3_RK8t_lambda(ptr noundef nonnull align 8 dereferenceable(65) %13, ptr nonnull %0, ptr nonnull poison, double noundef %15, ptr %1, ptr poison, ptr noundef nonnull align 8 dereferenceable(288) %3)
  %16 = getelementptr inbounds i8, ptr %0, i64 344
  store float 0.000000e+00, ptr %16, align 4
  ret void
}